target datalayout = "e-m:e-p270:32:32-p271:32:32-p272:64:64-i64:64-i128:128-f80:128-n8:16:32:64-S128"
target triple = "x86_64-pc-linux-gnu"

%struct.strbuf = type { i64, i64, ptr }

@tr2_cfg_patterns = internal global ptr null, align 8
@tr2_cfg_count_patterns = internal global i32 0, align 4
@tr2_cfg_loaded = internal global i32 0, align 4
@.str = private unnamed_addr constant [11 x i8] c"./strbuf.h\00", align 1
@.str.1 = private unnamed_addr constant [30 x i8] c"strbuf_setlen() beyond buffer\00", align 1
@strbuf_slopbuf = external global [0 x i8], align 1

; Function Attrs: inlinehint nounwind uwtable
define internal void @strbuf_setlen(ptr noundef %0, i64 noundef %1) #7 {
  %3 = alloca ptr, align 8
  %4 = alloca i64, align 8
  store ptr %0, ptr %3, align 8, !tbaa !19
  store i64 %1, ptr %4, align 8, !tbaa !38
  %5 = load i64, ptr %4, align 8, !tbaa !38
  %6 = load ptr, ptr %3, align 8, !tbaa !19
  %7 = getelementptr inbounds nuw %struct.strbuf, ptr %6, i32 0, i32 0
  %8 = load i64, ptr %7, align 8, !tbaa !39
  %9 = icmp ne i64 %8, 0
  br i1 %9, label %10, label %15

10:                                               ; preds = %2
  %11 = load ptr, ptr %3, align 8, !tbaa !19
  %12 = getelementptr inbounds nuw %struct.strbuf, ptr %11, i32 0, i32 0
  %13 = load i64, ptr %12, align 8, !tbaa !39
  %14 = sub i64 %13, 1
  br label %16

15:                                               ; preds = %2
  br label %16

16:                                               ; preds = %15, %10
  %17 = phi i64 [ %14, %10 ], [ 0, %15 ]
  %18 = icmp ugt i64 %5, %17
  br i1 %18, label %19, label %20

19:                                               ; preds = %16
  call void (ptr, i32, ptr, ...) @BUG_fl(ptr noundef @.str, i32 noundef 167, ptr noundef @.str.1) #11
  unreachable

20:                                               ; preds = %16
  %21 = load i64, ptr %4, align 8, !tbaa !38
  %22 = load ptr, ptr %3, align 8, !tbaa !19
  %23 = getelementptr inbounds nuw %struct.strbuf, ptr %22, i32 0, i32 1
  store i64 %21, ptr %23, align 8, !tbaa !21
  %24 = load ptr, ptr %3, align 8, !tbaa !19
  %25 = getelementptr inbounds nuw %struct.strbuf, ptr %24, i32 0, i32 2
  %26 = load ptr, ptr %25, align 8, !tbaa !24
  %27 = icmp ne ptr %26, @strbuf_slopbuf
  br i1 %27, label %28, label %34

28:                                               ; preds = %20
  %29 = load ptr, ptr %3, align 8, !tbaa !19
  %30 = getelementptr inbounds nuw %struct.strbuf, ptr %29, i32 0, i32 2
  %31 = load ptr, ptr %30, align 8, !tbaa !24
  %32 = load i64, ptr %4, align 8, !tbaa !38
  %33 = getelementptr inbounds nuw i8, ptr %31, i64 %32
  store i8 0, ptr %33, align 1, !tbaa !18
  br label %35

34:                                               ; preds = %20
  br label %35

35:                                               ; preds = %34, %28
  ret void
}

; Function Attrs: nounwind uwtable
define internal i32 @tr2_cfg_load_patterns() #0 {
  %1 = alloca i32, align 4
  %2 = alloca ptr, align 8
  %3 = alloca ptr, align 8
  %4 = alloca i32, align 4
  %5 = alloca ptr, align 8
  call void @llvm.lifetime.start.p0(i64 8, ptr %2) #9
  call void @llvm.lifetime.start.p0(i64 8, ptr %3) #9
  %6 = load i32, ptr @tr2_cfg_loaded, align 4, !tbaa !9
  %7 = icmp ne i32 %6, 0
  br i1 %7, label %8, label %10

8:                                                ; preds = %0
  %9 = load i32, ptr @tr2_cfg_count_patterns, align 4, !tbaa !9
  store i32 %9, ptr %1, align 4
  store i32 1, ptr %4, align 4
  br label %72

10:                                               ; preds = %0
  store i32 1, ptr @tr2_cfg_loaded, align 4, !tbaa !9
  %11 = call ptr @tr2_sysenv_get(i32 noundef 0)
  store ptr %11, ptr %3, align 8, !tbaa !11
  %12 = load ptr, ptr %3, align 8, !tbaa !11
  %13 = icmp ne ptr %12, null
  br i1 %13, label %14, label %18

14:                                               ; preds = %10
  %15 = load ptr, ptr %3, align 8, !tbaa !11
  %16 = load i8, ptr %15, align 1, !tbaa !18
  %17 = icmp ne i8 %16, 0
  br i1 %17, label %20, label %18

18:                                               ; preds = %14, %10
  %19 = load i32, ptr @tr2_cfg_count_patterns, align 4, !tbaa !9
  store i32 %19, ptr %1, align 4
  store i32 1, ptr %4, align 4
  br label %72

20:                                               ; preds = %14
  %21 = load ptr, ptr %3, align 8, !tbaa !11
  %22 = load ptr, ptr %3, align 8, !tbaa !11
  %23 = call i64 @strlen(ptr noundef %22) #10
  %24 = call ptr @strbuf_split_buf(ptr noundef %21, i64 noundef %23, i32 noundef 44, i32 noundef -1)
  store ptr %24, ptr @tr2_cfg_patterns, align 8, !tbaa !4
  %25 = load ptr, ptr @tr2_cfg_patterns, align 8, !tbaa !4
  store ptr %25, ptr %2, align 8, !tbaa !4
  br label %26

26:                                               ; preds = %60, %20
  %27 = load ptr, ptr %2, align 8, !tbaa !4
  %28 = load ptr, ptr %27, align 8, !tbaa !19
  %29 = icmp ne ptr %28, null
  br i1 %29, label %30, label %63

30:                                               ; preds = %26
  call void @llvm.lifetime.start.p0(i64 8, ptr %5) #9
  %31 = load ptr, ptr %2, align 8, !tbaa !4
  %32 = load ptr, ptr %31, align 8, !tbaa !19
  store ptr %32, ptr %5, align 8, !tbaa !19
  %33 = load ptr, ptr %5, align 8, !tbaa !19
  %34 = getelementptr inbounds nuw %struct.strbuf, ptr %33, i32 0, i32 1
  %35 = load i64, ptr %34, align 8, !tbaa !21
  %36 = icmp ne i64 %35, 0
  br i1 %36, label %37, label %55

37:                                               ; preds = %30
  %38 = load ptr, ptr %5, align 8, !tbaa !19
  %39 = getelementptr inbounds nuw %struct.strbuf, ptr %38, i32 0, i32 2
  %40 = load ptr, ptr %39, align 8, !tbaa !24
  %41 = load ptr, ptr %5, align 8, !tbaa !19
  %42 = getelementptr inbounds nuw %struct.strbuf, ptr %41, i32 0, i32 1
  %43 = load i64, ptr %42, align 8, !tbaa !21
  %44 = sub i64 %43, 1
  %45 = getelementptr inbounds nuw i8, ptr %40, i64 %44
  %46 = load i8, ptr %45, align 1, !tbaa !18
  %47 = sext i8 %46 to i32
  %48 = icmp eq i32 %47, 44
  br i1 %48, label %49, label %55

49:                                               ; preds = %37
  %50 = load ptr, ptr %5, align 8, !tbaa !19
  %51 = load ptr, ptr %5, align 8, !tbaa !19
  %52 = getelementptr inbounds nuw %struct.strbuf, ptr %51, i32 0, i32 1
  %53 = load i64, ptr %52, align 8, !tbaa !21
  %54 = sub i64 %53, 1
  call void @strbuf_setlen(ptr noundef %50, i64 noundef %54)
  br label %55

55:                                               ; preds = %49, %37, %30
  %56 = load ptr, ptr %2, align 8, !tbaa !4
  %57 = load ptr, ptr %56, align 8, !tbaa !19
  call void @strbuf_trim_trailing_newline(ptr noundef %57)
  %58 = load ptr, ptr %2, align 8, !tbaa !4
  %59 = load ptr, ptr %58, align 8, !tbaa !19
  call void @strbuf_trim(ptr noundef %59)
  call void @llvm.lifetime.end.p0(i64 8, ptr %5) #9
  br label %60

60:                                               ; preds = %55
  %61 = load ptr, ptr %2, align 8, !tbaa !4
  %62 = getelementptr inbounds nuw ptr, ptr %61, i32 1
  store ptr %62, ptr %2, align 8, !tbaa !4
  br label %26, !llvm.loop !25

63:                                               ; preds = %26
  %64 = load ptr, ptr %2, align 8, !tbaa !4
  %65 = load ptr, ptr @tr2_cfg_patterns, align 8, !tbaa !4
  %66 = ptrtoint ptr %64 to i64
  %67 = ptrtoint ptr %65 to i64
  %68 = sub i64 %66, %67
  %69 = sdiv exact i64 %68, 8
  %70 = trunc i64 %69 to i32
  store i32 %70, ptr @tr2_cfg_count_patterns, align 4, !tbaa !9
  %71 = load i32, ptr @tr2_cfg_count_patterns, align 4, !tbaa !9
  store i32 %71, ptr %1, align 4
  store i32 1, ptr %4, align 4
  br label %72

72:                                               ; preds = %63, %18, %8
  call void @llvm.lifetime.end.p0(i64 8, ptr %3) #9
  call void @llvm.lifetime.end.p0(i64 8, ptr %2) #9
  %73 = load i32, ptr %1, align 4
  ret i32 %73
}