; Function Attrs: nounwind uwtable
define internal fastcc i32 @tr2_cfg_load_patterns() unnamed_addr #0 {
  %.b = load i1, ptr @tr2_cfg_loaded, align 4
  br i1 %.b, label %1, label %3

1:                                                ; preds = %0
  %2 = load i32, ptr @tr2_cfg_count_patterns, align 4, !tbaa !9
  br label %39

3:                                                ; preds = %0
  store i1 true, ptr @tr2_cfg_loaded, align 4
  %4 = tail call ptr @tr2_sysenv_get(i32 noundef 0) #8
  %.not = icmp eq ptr %4, null
  br i1 %.not, label %7, label %5

5:                                                ; preds = %3
  %6 = load i8, ptr %4, align 1, !tbaa !17
  %.not19 = icmp eq i8 %6, 0
  br i1 %.not19, label %7, label %9

7:                                                ; preds = %5, %3
  %8 = load i32, ptr @tr2_cfg_count_patterns, align 4, !tbaa !9
  br label %39

9:                                                ; preds = %5
  %10 = tail call i64 @strlen(ptr noundef nonnull dereferenceable(1) %4) #9
  %11 = tail call ptr @strbuf_split_buf(ptr noundef nonnull %4, i64 noundef %10, i32 noundef 44, i32 noundef -1) #8
  store ptr %11, ptr @tr2_cfg_patterns, align 8, !tbaa !4
  %12 = load ptr, ptr %11, align 8, !tbaa !18
  %.not2023 = icmp eq ptr %12, null
  br i1 %.not2023, label %._crit_edge, label %.lr.ph

.lr.ph:                                           ; preds = %9, %strbuf_setlen.exit
  %13 = phi ptr [ %32, %strbuf_setlen.exit ], [ %12, %9 ]
  %.01524 = phi ptr [ %31, %strbuf_setlen.exit ], [ %11, %9 ]
  %14 = getelementptr inbounds nuw i8, ptr %13, i64 8
  %15 = load i64, ptr %14, align 8, !tbaa !20
  %.not21 = icmp eq i64 %15, 0
  br i1 %.not21, label %strbuf_setlen.exit, label %16

16:                                               ; preds = %.lr.ph
  %17 = getelementptr inbounds nuw i8, ptr %13, i64 16
  %18 = load ptr, ptr %17, align 8, !tbaa !23
  %19 = add i64 %15, -1
  %20 = getelementptr inbounds nuw i8, ptr %18, i64 %19
  %21 = load i8, ptr %20, align 1, !tbaa !17
  %22 = icmp eq i8 %21, 44
  br i1 %22, label %23, label %strbuf_setlen.exit

23:                                               ; preds = %16
  %24 = load i64, ptr %13, align 8, !tbaa !24
  %spec.select.i = tail call i64 @llvm.usub.sat.i64(i64 %24, i64 1)
  %25 = icmp ugt i64 %19, %spec.select.i
  br i1 %25, label %26, label %27

26:                                               ; preds = %23
  tail call void (ptr, i32, ptr, ...) @BUG_fl(ptr noundef nonnull @.str, i32 noundef 167, ptr noundef nonnull @.str.1) #10
  unreachable

27:                                               ; preds = %23
  store i64 %19, ptr %14, align 8, !tbaa !20
  %.not9.i = icmp eq ptr %18, @strbuf_slopbuf
  br i1 %.not9.i, label %strbuf_setlen.exit, label %28

28:                                               ; preds = %27
  store i8 0, ptr %20, align 1, !tbaa !17
  %.pre = load ptr, ptr %.01524, align 8, !tbaa !18
  br label %strbuf_setlen.exit

strbuf_setlen.exit:                               ; preds = %28, %27, %16, %.lr.ph
  %29 = phi ptr [ %.pre, %28 ], [ %13, %27 ], [ %13, %16 ], [ %13, %.lr.ph ]
  tail call void @strbuf_trim_trailing_newline(ptr noundef %29) #8
  %30 = load ptr, ptr %.01524, align 8, !tbaa !18
  tail call void @strbuf_trim(ptr noundef %30) #8
  %31 = getelementptr inbounds nuw i8, ptr %.01524, i64 8
  %32 = load ptr, ptr %31, align 8, !tbaa !18
  %.not20 = icmp eq ptr %32, null
  br i1 %.not20, label %._crit_edge.loopexit, label %.lr.ph, !llvm.loop !25

._crit_edge.loopexit:                             ; preds = %strbuf_setlen.exit
  %.pre25 = load ptr, ptr @tr2_cfg_patterns, align 8, !tbaa !4
  br label %._crit_edge

._crit_edge:                                      ; preds = %._crit_edge.loopexit, %9
  %33 = phi ptr [ %11, %9 ], [ %.pre25, %._crit_edge.loopexit ]
  %.015.lcssa = phi ptr [ %11, %9 ], [ %31, %._crit_edge.loopexit ]
  %34 = ptrtoint ptr %.015.lcssa to i64
  %35 = ptrtoint ptr %33 to i64
  %36 = sub i64 %34, %35
  %37 = lshr exact i64 %36, 3
  %38 = trunc i64 %37 to i32
  store i32 %38, ptr @tr2_cfg_count_patterns, align 4, !tbaa !9
  br label %39

39:                                               ; preds = %._crit_edge, %7, %1
  %.0 = phi i32 [ %2, %1 ], [ %38, %._crit_edge ], [ %8, %7 ]
  ret i32 %.0
}